
arr:     file format elf32-i386


Disassembly of section .init:

080483b8 <.init>:
 80483b8:	53                   	push   %ebx
 80483b9:	83 ec 08             	sub    $0x8,%esp
 80483bc:	e8 ef 00 00 00       	call   80484b0 <__isoc99_scanf@plt+0x50>
 80483c1:	81 c3 37 17 00 00    	add    $0x1737,%ebx
 80483c7:	8b 83 fc ff ff ff    	mov    -0x4(%ebx),%eax
 80483cd:	85 c0                	test   %eax,%eax
 80483cf:	74 05                	je     80483d6 <printf@plt-0x1a>
 80483d1:	e8 9a 00 00 00       	call   8048470 <__isoc99_scanf@plt+0x10>
 80483d6:	83 c4 08             	add    $0x8,%esp
 80483d9:	5b                   	pop    %ebx
 80483da:	c3                   	ret    

Disassembly of section .plt:

080483e0 <printf@plt-0x10>:
 80483e0:	ff 35 fc 9a 04 08    	pushl  0x8049afc
 80483e6:	ff 25 00 9b 04 08    	jmp    *0x8049b00
 80483ec:	00 00                	add    %al,(%eax)
	...

080483f0 <printf@plt>:
 80483f0:	ff 25 04 9b 04 08    	jmp    *0x8049b04
 80483f6:	68 00 00 00 00       	push   $0x0
 80483fb:	e9 e0 ff ff ff       	jmp    80483e0 <printf@plt-0x10>

08048400 <fflush@plt>:
 8048400:	ff 25 08 9b 04 08    	jmp    *0x8049b08
 8048406:	68 08 00 00 00       	push   $0x8
 804840b:	e9 d0 ff ff ff       	jmp    80483e0 <printf@plt-0x10>

08048410 <__stack_chk_fail@plt>:
 8048410:	ff 25 0c 9b 04 08    	jmp    *0x8049b0c
 8048416:	68 10 00 00 00       	push   $0x10
 804841b:	e9 c0 ff ff ff       	jmp    80483e0 <printf@plt-0x10>

08048420 <puts@plt>:
 8048420:	ff 25 10 9b 04 08    	jmp    *0x8049b10
 8048426:	68 18 00 00 00       	push   $0x18
 804842b:	e9 b0 ff ff ff       	jmp    80483e0 <printf@plt-0x10>

08048430 <system@plt>:
 8048430:	ff 25 14 9b 04 08    	jmp    *0x8049b14
 8048436:	68 20 00 00 00       	push   $0x20
 804843b:	e9 a0 ff ff ff       	jmp    80483e0 <printf@plt-0x10>

08048440 <exit@plt>:
 8048440:	ff 25 18 9b 04 08    	jmp    *0x8049b18
 8048446:	68 28 00 00 00       	push   $0x28
 804844b:	e9 90 ff ff ff       	jmp    80483e0 <printf@plt-0x10>

08048450 <__libc_start_main@plt>:
 8048450:	ff 25 1c 9b 04 08    	jmp    *0x8049b1c
 8048456:	68 30 00 00 00       	push   $0x30
 804845b:	e9 80 ff ff ff       	jmp    80483e0 <printf@plt-0x10>

08048460 <__isoc99_scanf@plt>:
 8048460:	ff 25 20 9b 04 08    	jmp    *0x8049b20
 8048466:	68 38 00 00 00       	push   $0x38
 804846b:	e9 70 ff ff ff       	jmp    80483e0 <printf@plt-0x10>

Disassembly of section .plt.got:

08048470 <.plt.got>:
 8048470:	ff 25 f4 9a 04 08    	jmp    *0x8049af4
 8048476:	66 90                	xchg   %ax,%ax

Disassembly of section .text:

08048480 <.text>:
 8048480:	31 ed                	xor    %ebp,%ebp
 8048482:	5e                   	pop    %esi
 8048483:	89 e1                	mov    %esp,%ecx
 8048485:	83 e4 f0             	and    $0xfffffff0,%esp
 8048488:	50                   	push   %eax
 8048489:	54                   	push   %esp
 804848a:	52                   	push   %edx
 804848b:	68 c0 87 04 08       	push   $0x80487c0
 8048490:	68 60 87 04 08       	push   $0x8048760
 8048495:	51                   	push   %ecx
 8048496:	56                   	push   %esi
 8048497:	68 2c 87 04 08       	push   $0x804872c
 804849c:	e8 af ff ff ff       	call   8048450 <__libc_start_main@plt>
 80484a1:	f4                   	hlt    
 80484a2:	66 90                	xchg   %ax,%ax
 80484a4:	66 90                	xchg   %ax,%ax
 80484a6:	66 90                	xchg   %ax,%ax
 80484a8:	66 90                	xchg   %ax,%ax
 80484aa:	66 90                	xchg   %ax,%ax
 80484ac:	66 90                	xchg   %ax,%ax
 80484ae:	66 90                	xchg   %ax,%ax
 80484b0:	8b 1c 24             	mov    (%esp),%ebx
 80484b3:	c3                   	ret    
 80484b4:	66 90                	xchg   %ax,%ax
 80484b6:	66 90                	xchg   %ax,%ax
 80484b8:	66 90                	xchg   %ax,%ax
 80484ba:	66 90                	xchg   %ax,%ax
 80484bc:	66 90                	xchg   %ax,%ax
 80484be:	66 90                	xchg   %ax,%ax
 80484c0:	b8 2f 9b 04 08       	mov    $0x8049b2f,%eax
 80484c5:	2d 2c 9b 04 08       	sub    $0x8049b2c,%eax
 80484ca:	83 f8 06             	cmp    $0x6,%eax
 80484cd:	76 1a                	jbe    80484e9 <__isoc99_scanf@plt+0x89>
 80484cf:	b8 00 00 00 00       	mov    $0x0,%eax
 80484d4:	85 c0                	test   %eax,%eax
 80484d6:	74 11                	je     80484e9 <__isoc99_scanf@plt+0x89>
 80484d8:	55                   	push   %ebp
 80484d9:	89 e5                	mov    %esp,%ebp
 80484db:	83 ec 14             	sub    $0x14,%esp
 80484de:	68 2c 9b 04 08       	push   $0x8049b2c
 80484e3:	ff d0                	call   *%eax
 80484e5:	83 c4 10             	add    $0x10,%esp
 80484e8:	c9                   	leave  
 80484e9:	f3 c3                	repz ret 
 80484eb:	90                   	nop
 80484ec:	8d 74 26 00          	lea    0x0(%esi,%eiz,1),%esi
 80484f0:	b8 2c 9b 04 08       	mov    $0x8049b2c,%eax
 80484f5:	2d 2c 9b 04 08       	sub    $0x8049b2c,%eax
 80484fa:	c1 f8 02             	sar    $0x2,%eax
 80484fd:	89 c2                	mov    %eax,%edx
 80484ff:	c1 ea 1f             	shr    $0x1f,%edx
 8048502:	01 d0                	add    %edx,%eax
 8048504:	d1 f8                	sar    %eax
 8048506:	74 1b                	je     8048523 <__isoc99_scanf@plt+0xc3>
 8048508:	ba 00 00 00 00       	mov    $0x0,%edx
 804850d:	85 d2                	test   %edx,%edx
 804850f:	74 12                	je     8048523 <__isoc99_scanf@plt+0xc3>
 8048511:	55                   	push   %ebp
 8048512:	89 e5                	mov    %esp,%ebp
 8048514:	83 ec 10             	sub    $0x10,%esp
 8048517:	50                   	push   %eax
 8048518:	68 2c 9b 04 08       	push   $0x8049b2c
 804851d:	ff d2                	call   *%edx
 804851f:	83 c4 10             	add    $0x10,%esp
 8048522:	c9                   	leave  
 8048523:	f3 c3                	repz ret 
 8048525:	8d 74 26 00          	lea    0x0(%esi,%eiz,1),%esi
 8048529:	8d bc 27 00 00 00 00 	lea    0x0(%edi,%eiz,1),%edi
 8048530:	80 3d 30 9b 04 08 00 	cmpb   $0x0,0x8049b30
 8048537:	75 13                	jne    804854c <__isoc99_scanf@plt+0xec>
 8048539:	55                   	push   %ebp
 804853a:	89 e5                	mov    %esp,%ebp
 804853c:	83 ec 08             	sub    $0x8,%esp
 804853f:	e8 7c ff ff ff       	call   80484c0 <__isoc99_scanf@plt+0x60>
 8048544:	c6 05 30 9b 04 08 01 	movb   $0x1,0x8049b30
 804854b:	c9                   	leave  
 804854c:	f3 c3                	repz ret 
 804854e:	66 90                	xchg   %ax,%ax
 8048550:	b8 08 9a 04 08       	mov    $0x8049a08,%eax
 8048555:	8b 10                	mov    (%eax),%edx
 8048557:	85 d2                	test   %edx,%edx
 8048559:	75 05                	jne    8048560 <__isoc99_scanf@plt+0x100>
 804855b:	eb 93                	jmp    80484f0 <__isoc99_scanf@plt+0x90>
 804855d:	8d 76 00             	lea    0x0(%esi),%esi
 8048560:	ba 00 00 00 00       	mov    $0x0,%edx
 8048565:	85 d2                	test   %edx,%edx
 8048567:	74 f2                	je     804855b <__isoc99_scanf@plt+0xfb>
 8048569:	55                   	push   %ebp
 804856a:	89 e5                	mov    %esp,%ebp
 804856c:	83 ec 14             	sub    $0x14,%esp
 804856f:	50                   	push   %eax
 8048570:	ff d2                	call   *%edx
 8048572:	83 c4 10             	add    $0x10,%esp
 8048575:	c9                   	leave  
 8048576:	e9 75 ff ff ff       	jmp    80484f0 <__isoc99_scanf@plt+0x90>
 804857b:	55                   	push   %ebp
 804857c:	89 e5                	mov    %esp,%ebp
 804857e:	83 ec 08             	sub    $0x8,%esp
 8048581:	83 ec 0c             	sub    $0xc,%esp
 8048584:	ff 75 08             	pushl  0x8(%ebp)
 8048587:	e8 a4 fe ff ff       	call   8048430 <system@plt>
 804858c:	83 c4 10             	add    $0x10,%esp
 804858f:	90                   	nop
 8048590:	c9                   	leave  
 8048591:	c3                   	ret    
 8048592:	55                   	push   %ebp
 8048593:	89 e5                	mov    %esp,%ebp
 8048595:	57                   	push   %edi
 8048596:	83 ec 44             	sub    $0x44,%esp
 8048599:	8d 55 d0             	lea    -0x30(%ebp),%edx
 804859c:	b8 00 00 00 00       	mov    $0x0,%eax
 80485a1:	b9 0a 00 00 00       	mov    $0xa,%ecx
 80485a6:	89 d7                	mov    %edx,%edi
 80485a8:	f3 ab                	rep stos %eax,%es:(%edi)
 80485aa:	c7 45 cc 00 00 00 00 	movl   $0x0,-0x34(%ebp)
 80485b1:	e9 8a 00 00 00       	jmp    8048640 <__isoc99_scanf@plt+0x1e0>
 80485b6:	83 ec 0c             	sub    $0xc,%esp
 80485b9:	68 e0 87 04 08       	push   $0x80487e0
 80485be:	e8 5d fe ff ff       	call   8048420 <puts@plt>
 80485c3:	83 c4 10             	add    $0x10,%esp
 80485c6:	a1 2c 9b 04 08       	mov    0x8049b2c,%eax
 80485cb:	83 ec 0c             	sub    $0xc,%esp
 80485ce:	50                   	push   %eax
 80485cf:	e8 2c fe ff ff       	call   8048400 <fflush@plt>
 80485d4:	83 c4 10             	add    $0x10,%esp
 80485d7:	83 ec 08             	sub    $0x8,%esp
 80485da:	8d 45 c0             	lea    -0x40(%ebp),%eax
 80485dd:	50                   	push   %eax
 80485de:	68 ec 87 04 08       	push   $0x80487ec
 80485e3:	e8 78 fe ff ff       	call   8048460 <__isoc99_scanf@plt>
 80485e8:	83 c4 10             	add    $0x10,%esp
 80485eb:	83 ec 0c             	sub    $0xc,%esp
 80485ee:	68 ef 87 04 08       	push   $0x80487ef
 80485f3:	e8 28 fe ff ff       	call   8048420 <puts@plt>
 80485f8:	83 c4 10             	add    $0x10,%esp
 80485fb:	a1 2c 9b 04 08       	mov    0x8049b2c,%eax
 8048600:	83 ec 0c             	sub    $0xc,%esp
 8048603:	50                   	push   %eax
 8048604:	e8 f7 fd ff ff       	call   8048400 <fflush@plt>
 8048609:	83 c4 10             	add    $0x10,%esp
 804860c:	83 ec 08             	sub    $0x8,%esp
 804860f:	8d 45 c4             	lea    -0x3c(%ebp),%eax
 8048612:	50                   	push   %eax
 8048613:	68 ec 87 04 08       	push   $0x80487ec
 8048618:	e8 43 fe ff ff       	call   8048460 <__isoc99_scanf@plt>
 804861d:	83 c4 10             	add    $0x10,%esp
 8048620:	8b 45 c0             	mov    -0x40(%ebp),%eax
 8048623:	83 f8 09             	cmp    $0x9,%eax
 8048626:	7e 0a                	jle    8048632 <__isoc99_scanf@plt+0x1d2>
 8048628:	83 ec 0c             	sub    $0xc,%esp
 804862b:	6a 00                	push   $0x0
 804862d:	e8 0e fe ff ff       	call   8048440 <exit@plt>
 8048632:	8b 45 c0             	mov    -0x40(%ebp),%eax
 8048635:	8b 55 c4             	mov    -0x3c(%ebp),%edx
 8048638:	89 54 85 d0          	mov    %edx,-0x30(%ebp,%eax,4)
 804863c:	83 45 cc 01          	addl   $0x1,-0x34(%ebp)
 8048640:	83 7d cc 09          	cmpl   $0x9,-0x34(%ebp)
 8048644:	0f 8e 6c ff ff ff    	jle    80485b6 <__isoc99_scanf@plt+0x156>
 804864a:	83 ec 0c             	sub    $0xc,%esp
 804864d:	68 fb 87 04 08       	push   $0x80487fb
 8048652:	e8 c9 fd ff ff       	call   8048420 <puts@plt>
 8048657:	83 c4 10             	add    $0x10,%esp
 804865a:	a1 2c 9b 04 08       	mov    0x8049b2c,%eax
 804865f:	83 ec 0c             	sub    $0xc,%esp
 8048662:	50                   	push   %eax
 8048663:	e8 98 fd ff ff       	call   8048400 <fflush@plt>
 8048668:	83 c4 10             	add    $0x10,%esp
 804866b:	c7 45 c8 00 00 00 00 	movl   $0x0,-0x38(%ebp)
 8048672:	eb 2d                	jmp    80486a1 <__isoc99_scanf@plt+0x241>
 8048674:	8b 45 c8             	mov    -0x38(%ebp),%eax
 8048677:	8b 44 85 d0          	mov    -0x30(%ebp,%eax,4),%eax
 804867b:	83 ec 08             	sub    $0x8,%esp
 804867e:	50                   	push   %eax
 804867f:	68 12 88 04 08       	push   $0x8048812
 8048684:	e8 67 fd ff ff       	call   80483f0 <printf@plt>
 8048689:	83 c4 10             	add    $0x10,%esp
 804868c:	a1 2c 9b 04 08       	mov    0x8049b2c,%eax
 8048691:	83 ec 0c             	sub    $0xc,%esp
 8048694:	50                   	push   %eax
 8048695:	e8 66 fd ff ff       	call   8048400 <fflush@plt>
 804869a:	83 c4 10             	add    $0x10,%esp
 804869d:	83 45 c8 01          	addl   $0x1,-0x38(%ebp)
 80486a1:	83 7d c8 09          	cmpl   $0x9,-0x38(%ebp)
 80486a5:	7e cd                	jle    8048674 <__isoc99_scanf@plt+0x214>
 80486a7:	90                   	nop
 80486a8:	8b 7d fc             	mov    -0x4(%ebp),%edi
 80486ab:	c9                   	leave  
 80486ac:	c3                   	ret    
 80486ad:	55                   	push   %ebp
 80486ae:	89 e5                	mov    %esp,%ebp
 80486b0:	83 ec 18             	sub    $0x18,%esp
 80486b3:	65 a1 14 00 00 00    	mov    %gs:0x14,%eax
 80486b9:	89 45 f4             	mov    %eax,-0xc(%ebp)
 80486bc:	31 c0                	xor    %eax,%eax
 80486be:	83 ec 0c             	sub    $0xc,%esp
 80486c1:	68 16 88 04 08       	push   $0x8048816
 80486c6:	e8 55 fd ff ff       	call   8048420 <puts@plt>
 80486cb:	83 c4 10             	add    $0x10,%esp
 80486ce:	a1 2c 9b 04 08       	mov    0x8049b2c,%eax
 80486d3:	83 ec 0c             	sub    $0xc,%esp
 80486d6:	50                   	push   %eax
 80486d7:	e8 24 fd ff ff       	call   8048400 <fflush@plt>
 80486dc:	83 c4 10             	add    $0x10,%esp
 80486df:	83 ec 08             	sub    $0x8,%esp
 80486e2:	8d 45 ea             	lea    -0x16(%ebp),%eax
 80486e5:	50                   	push   %eax
 80486e6:	68 2f 88 04 08       	push   $0x804882f
 80486eb:	e8 70 fd ff ff       	call   8048460 <__isoc99_scanf@plt>
 80486f0:	83 c4 10             	add    $0x10,%esp
 80486f3:	83 ec 08             	sub    $0x8,%esp
 80486f6:	8d 45 ea             	lea    -0x16(%ebp),%eax
 80486f9:	50                   	push   %eax
 80486fa:	68 34 88 04 08       	push   $0x8048834
 80486ff:	e8 ec fc ff ff       	call   80483f0 <printf@plt>
 8048704:	83 c4 10             	add    $0x10,%esp
 8048707:	a1 2c 9b 04 08       	mov    0x8049b2c,%eax
 804870c:	83 ec 0c             	sub    $0xc,%esp
 804870f:	50                   	push   %eax
 8048710:	e8 eb fc ff ff       	call   8048400 <fflush@plt>
 8048715:	83 c4 10             	add    $0x10,%esp
 8048718:	90                   	nop
 8048719:	8b 45 f4             	mov    -0xc(%ebp),%eax
 804871c:	65 33 05 14 00 00 00 	xor    %gs:0x14,%eax
 8048723:	74 05                	je     804872a <__isoc99_scanf@plt+0x2ca>
 8048725:	e8 e6 fc ff ff       	call   8048410 <__stack_chk_fail@plt>
 804872a:	c9                   	leave  
 804872b:	c3                   	ret    
 804872c:	8d 4c 24 04          	lea    0x4(%esp),%ecx
 8048730:	83 e4 f0             	and    $0xfffffff0,%esp
 8048733:	ff 71 fc             	pushl  -0x4(%ecx)
 8048736:	55                   	push   %ebp
 8048737:	89 e5                	mov    %esp,%ebp
 8048739:	51                   	push   %ecx
 804873a:	83 ec 04             	sub    $0x4,%esp
 804873d:	e8 6b ff ff ff       	call   80486ad <__isoc99_scanf@plt+0x24d>
 8048742:	e8 4b fe ff ff       	call   8048592 <__isoc99_scanf@plt+0x132>
 8048747:	b8 00 00 00 00       	mov    $0x0,%eax
 804874c:	83 c4 04             	add    $0x4,%esp
 804874f:	59                   	pop    %ecx
 8048750:	5d                   	pop    %ebp
 8048751:	8d 61 fc             	lea    -0x4(%ecx),%esp
 8048754:	c3                   	ret    
 8048755:	66 90                	xchg   %ax,%ax
 8048757:	66 90                	xchg   %ax,%ax
 8048759:	66 90                	xchg   %ax,%ax
 804875b:	66 90                	xchg   %ax,%ax
 804875d:	66 90                	xchg   %ax,%ax
 804875f:	90                   	nop
 8048760:	55                   	push   %ebp
 8048761:	57                   	push   %edi
 8048762:	56                   	push   %esi
 8048763:	53                   	push   %ebx
 8048764:	e8 47 fd ff ff       	call   80484b0 <__isoc99_scanf@plt+0x50>
 8048769:	81 c3 8f 13 00 00    	add    $0x138f,%ebx
 804876f:	83 ec 0c             	sub    $0xc,%esp
 8048772:	8b 6c 24 20          	mov    0x20(%esp),%ebp
 8048776:	8d b3 0c ff ff ff    	lea    -0xf4(%ebx),%esi
 804877c:	e8 37 fc ff ff       	call   80483b8 <printf@plt-0x38>
 8048781:	8d 83 08 ff ff ff    	lea    -0xf8(%ebx),%eax
 8048787:	29 c6                	sub    %eax,%esi
 8048789:	c1 fe 02             	sar    $0x2,%esi
 804878c:	85 f6                	test   %esi,%esi
 804878e:	74 25                	je     80487b5 <__isoc99_scanf@plt+0x355>
 8048790:	31 ff                	xor    %edi,%edi
 8048792:	8d b6 00 00 00 00    	lea    0x0(%esi),%esi
 8048798:	83 ec 04             	sub    $0x4,%esp
 804879b:	ff 74 24 2c          	pushl  0x2c(%esp)
 804879f:	ff 74 24 2c          	pushl  0x2c(%esp)
 80487a3:	55                   	push   %ebp
 80487a4:	ff 94 bb 08 ff ff ff 	call   *-0xf8(%ebx,%edi,4)
 80487ab:	83 c7 01             	add    $0x1,%edi
 80487ae:	83 c4 10             	add    $0x10,%esp
 80487b1:	39 f7                	cmp    %esi,%edi
 80487b3:	75 e3                	jne    8048798 <__isoc99_scanf@plt+0x338>
 80487b5:	83 c4 0c             	add    $0xc,%esp
 80487b8:	5b                   	pop    %ebx
 80487b9:	5e                   	pop    %esi
 80487ba:	5f                   	pop    %edi
 80487bb:	5d                   	pop    %ebp
 80487bc:	c3                   	ret    
 80487bd:	8d 76 00             	lea    0x0(%esi),%esi
 80487c0:	f3 c3                	repz ret 

Disassembly of section .fini:

080487c4 <.fini>:
 80487c4:	53                   	push   %ebx
 80487c5:	83 ec 08             	sub    $0x8,%esp
 80487c8:	e8 e3 fc ff ff       	call   80484b0 <__isoc99_scanf@plt+0x50>
 80487cd:	81 c3 2b 13 00 00    	add    $0x132b,%ebx
 80487d3:	83 c4 08             	add    $0x8,%esp
 80487d6:	5b                   	pop    %ebx
 80487d7:	c3                   	ret    
