
mem_test:     file format elf32-i386


Disassembly of section .init:

08048518 <_init>:
 8048518:	53                   	push   ebx
 8048519:	83 ec 08             	sub    esp,0x8
 804851c:	e8 1f 01 00 00       	call   8048640 <__x86.get_pc_thunk.bx>
 8048521:	81 c3 d7 17 00 00    	add    ebx,0x17d7
 8048527:	8b 83 fc ff ff ff    	mov    eax,DWORD PTR [ebx-0x4]
 804852d:	85 c0                	test   eax,eax
 804852f:	74 05                	je     8048536 <_init+0x1e>
 8048531:	e8 ca 00 00 00       	call   8048600 <strncmp@plt+0x10>
 8048536:	83 c4 08             	add    esp,0x8
 8048539:	5b                   	pop    ebx
 804853a:	c3                   	ret

Disassembly of section .plt:

08048540 <printf@plt-0x10>:
 8048540:	ff 35 fc 9c 04 08    	push   DWORD PTR ds:0x8049cfc
 8048546:	ff 25 00 9d 04 08    	jmp    DWORD PTR ds:0x8049d00
 804854c:	00 00                	add    BYTE PTR [eax],al
	...

08048550 <printf@plt>:
 8048550:	ff 25 04 9d 04 08    	jmp    DWORD PTR ds:0x8049d04
 8048556:	68 00 00 00 00       	push   0x0
 804855b:	e9 e0 ff ff ff       	jmp    8048540 <_init+0x28>

08048560 <time@plt>:
 8048560:	ff 25 08 9d 04 08    	jmp    DWORD PTR ds:0x8049d08
 8048566:	68 08 00 00 00       	push   0x8
 804856b:	e9 d0 ff ff ff       	jmp    8048540 <_init+0x28>

08048570 <puts@plt>:
 8048570:	ff 25 0c 9d 04 08    	jmp    DWORD PTR ds:0x8049d0c
 8048576:	68 10 00 00 00       	push   0x10
 804857b:	e9 c0 ff ff ff       	jmp    8048540 <_init+0x28>

08048580 <system@plt>:
 8048580:	ff 25 10 9d 04 08    	jmp    DWORD PTR ds:0x8049d10
 8048586:	68 18 00 00 00       	push   0x18
 804858b:	e9 b0 ff ff ff       	jmp    8048540 <_init+0x28>

08048590 <srand@plt>:
 8048590:	ff 25 14 9d 04 08    	jmp    DWORD PTR ds:0x8049d14
 8048596:	68 20 00 00 00       	push   0x20
 804859b:	e9 a0 ff ff ff       	jmp    8048540 <_init+0x28>

080485a0 <__libc_start_main@plt>:
 80485a0:	ff 25 18 9d 04 08    	jmp    DWORD PTR ds:0x8049d18
 80485a6:	68 28 00 00 00       	push   0x28
 80485ab:	e9 90 ff ff ff       	jmp    8048540 <_init+0x28>

080485b0 <memset@plt>:
 80485b0:	ff 25 1c 9d 04 08    	jmp    DWORD PTR ds:0x8049d1c
 80485b6:	68 30 00 00 00       	push   0x30
 80485bb:	e9 80 ff ff ff       	jmp    8048540 <_init+0x28>

080485c0 <server_main@plt>:
 80485c0:	ff 25 20 9d 04 08    	jmp    DWORD PTR ds:0x8049d20
 80485c6:	68 38 00 00 00       	push   0x38
 80485cb:	e9 70 ff ff ff       	jmp    8048540 <_init+0x28>

080485d0 <rand@plt>:
 80485d0:	ff 25 24 9d 04 08    	jmp    DWORD PTR ds:0x8049d24
 80485d6:	68 40 00 00 00       	push   0x40
 80485db:	e9 60 ff ff ff       	jmp    8048540 <_init+0x28>

080485e0 <__isoc99_scanf@plt>:
 80485e0:	ff 25 28 9d 04 08    	jmp    DWORD PTR ds:0x8049d28
 80485e6:	68 48 00 00 00       	push   0x48
 80485eb:	e9 50 ff ff ff       	jmp    8048540 <_init+0x28>

080485f0 <strncmp@plt>:
 80485f0:	ff 25 2c 9d 04 08    	jmp    DWORD PTR ds:0x8049d2c
 80485f6:	68 50 00 00 00       	push   0x50
 80485fb:	e9 40 ff ff ff       	jmp    8048540 <_init+0x28>

Disassembly of section .plt.got:

08048600 <.plt.got>:
 8048600:	ff 25 f4 9c 04 08    	jmp    DWORD PTR ds:0x8049cf4
 8048606:	66 90                	xchg   ax,ax

Disassembly of section .text:

08048610 <_start>:
 8048610:	31 ed                	xor    ebp,ebp
 8048612:	5e                   	pop    esi
 8048613:	89 e1                	mov    ecx,esp
 8048615:	83 e4 f0             	and    esp,0xfffffff0
 8048618:	50                   	push   eax
 8048619:	54                   	push   esp
 804861a:	52                   	push   edx
 804861b:	68 30 89 04 08       	push   0x8048930
 8048620:	68 d0 88 04 08       	push   0x80488d0
 8048625:	51                   	push   ecx
 8048626:	56                   	push   esi
 8048627:	68 7d 88 04 08       	push   0x804887d
 804862c:	e8 6f ff ff ff       	call   80485a0 <__libc_start_main@plt>
 8048631:	f4                   	hlt
 8048632:	66 90                	xchg   ax,ax
 8048634:	66 90                	xchg   ax,ax
 8048636:	66 90                	xchg   ax,ax
 8048638:	66 90                	xchg   ax,ax
 804863a:	66 90                	xchg   ax,ax
 804863c:	66 90                	xchg   ax,ax
 804863e:	66 90                	xchg   ax,ax

08048640 <__x86.get_pc_thunk.bx>:
 8048640:	8b 1c 24             	mov    ebx,DWORD PTR [esp]
 8048643:	c3                   	ret
 8048644:	66 90                	xchg   ax,ax
 8048646:	66 90                	xchg   ax,ax
 8048648:	66 90                	xchg   ax,ax
 804864a:	66 90                	xchg   ax,ax
 804864c:	66 90                	xchg   ax,ax
 804864e:	66 90                	xchg   ax,ax

08048650 <deregister_tm_clones>:
 8048650:	b8 3f 9d 04 08       	mov    eax,0x8049d3f
 8048655:	2d 3c 9d 04 08       	sub    eax,0x8049d3c
 804865a:	83 f8 06             	cmp    eax,0x6
 804865d:	76 1a                	jbe    8048679 <deregister_tm_clones+0x29>
 804865f:	b8 00 00 00 00       	mov    eax,0x0
 8048664:	85 c0                	test   eax,eax
 8048666:	74 11                	je     8048679 <deregister_tm_clones+0x29>
 8048668:	55                   	push   ebp
 8048669:	89 e5                	mov    ebp,esp
 804866b:	83 ec 14             	sub    esp,0x14
 804866e:	68 3c 9d 04 08       	push   0x8049d3c
 8048673:	ff d0                	call   eax
 8048675:	83 c4 10             	add    esp,0x10
 8048678:	c9                   	leave
 8048679:	f3 c3                	repz ret
 804867b:	90                   	nop
 804867c:	8d 74 26 00          	lea    esi,[esi+eiz*1+0x0]

08048680 <register_tm_clones>:
 8048680:	b8 3c 9d 04 08       	mov    eax,0x8049d3c
 8048685:	2d 3c 9d 04 08       	sub    eax,0x8049d3c
 804868a:	c1 f8 02             	sar    eax,0x2
 804868d:	89 c2                	mov    edx,eax
 804868f:	c1 ea 1f             	shr    edx,0x1f
 8048692:	01 d0                	add    eax,edx
 8048694:	d1 f8                	sar    eax,1
 8048696:	74 1b                	je     80486b3 <register_tm_clones+0x33>
 8048698:	ba 00 00 00 00       	mov    edx,0x0
 804869d:	85 d2                	test   edx,edx
 804869f:	74 12                	je     80486b3 <register_tm_clones+0x33>
 80486a1:	55                   	push   ebp
 80486a2:	89 e5                	mov    ebp,esp
 80486a4:	83 ec 10             	sub    esp,0x10
 80486a7:	50                   	push   eax
 80486a8:	68 3c 9d 04 08       	push   0x8049d3c
 80486ad:	ff d2                	call   edx
 80486af:	83 c4 10             	add    esp,0x10
 80486b2:	c9                   	leave
 80486b3:	f3 c3                	repz ret
 80486b5:	8d 74 26 00          	lea    esi,[esi+eiz*1+0x0]
 80486b9:	8d bc 27 00 00 00 00 	lea    edi,[edi+eiz*1+0x0]

080486c0 <__do_global_dtors_aux>:
 80486c0:	80 3d 3c 9d 04 08 00 	cmp    BYTE PTR ds:0x8049d3c,0x0
 80486c7:	75 13                	jne    80486dc <__do_global_dtors_aux+0x1c>
 80486c9:	55                   	push   ebp
 80486ca:	89 e5                	mov    ebp,esp
 80486cc:	83 ec 08             	sub    esp,0x8
 80486cf:	e8 7c ff ff ff       	call   8048650 <deregister_tm_clones>
 80486d4:	c6 05 3c 9d 04 08 01 	mov    BYTE PTR ds:0x8049d3c,0x1
 80486db:	c9                   	leave
 80486dc:	f3 c3                	repz ret
 80486de:	66 90                	xchg   ax,ax

080486e0 <frame_dummy>:
 80486e0:	b8 f8 9b 04 08       	mov    eax,0x8049bf8
 80486e5:	8b 10                	mov    edx,DWORD PTR [eax]
 80486e7:	85 d2                	test   edx,edx
 80486e9:	75 05                	jne    80486f0 <frame_dummy+0x10>
 80486eb:	eb 93                	jmp    8048680 <register_tm_clones>
 80486ed:	8d 76 00             	lea    esi,[esi+0x0]
 80486f0:	ba 00 00 00 00       	mov    edx,0x0
 80486f5:	85 d2                	test   edx,edx
 80486f7:	74 f2                	je     80486eb <frame_dummy+0xb>
 80486f9:	55                   	push   ebp
 80486fa:	89 e5                	mov    ebp,esp
 80486fc:	83 ec 14             	sub    esp,0x14
 80486ff:	50                   	push   eax
 8048700:	ff d2                	call   edx
 8048702:	83 c4 10             	add    esp,0x10
 8048705:	c9                   	leave
 8048706:	e9 75 ff ff ff       	jmp    8048680 <register_tm_clones>

0804870b <mem_test>:
 804870b:	55                   	push   ebp
 804870c:	89 e5                	mov    ebp,esp
 804870e:	83 ec 18             	sub    esp,0x18
 8048711:	83 ec 04             	sub    esp,0x4
 8048714:	6a 0b                	push   0xb
 8048716:	6a 00                	push   0x0
 8048718:	8d 45 ed             	lea    eax,[ebp-0x13]
 804871b:	50                   	push   eax
 804871c:	e8 8f fe ff ff       	call   80485b0 <memset@plt>
 8048721:	83 c4 10             	add    esp,0x10
 8048724:	83 ec 0c             	sub    esp,0xc
 8048727:	68 88 89 04 08       	push   0x8048988
 804872c:	e8 1f fe ff ff       	call   8048550 <printf@plt>
 8048731:	83 c4 10             	add    esp,0x10
 8048734:	a1 38 9d 04 08       	mov    eax,ds:0x8049d38
 8048739:	83 ec 08             	sub    esp,0x8
 804873c:	50                   	push   eax
 804873d:	68 ac 89 04 08       	push   0x80489ac
 8048742:	e8 09 fe ff ff       	call   8048550 <printf@plt>
 8048747:	83 c4 10             	add    esp,0x10
 804874a:	83 ec 0c             	sub    esp,0xc
 804874d:	68 b4 89 04 08       	push   0x80489b4
 8048752:	e8 19 fe ff ff       	call   8048570 <puts@plt>
 8048757:	83 c4 10             	add    esp,0x10
 804875a:	83 ec 0c             	sub    esp,0xc
 804875d:	68 da 89 04 08       	push   0x80489da
 8048762:	e8 e9 fd ff ff       	call   8048550 <printf@plt>
 8048767:	83 c4 10             	add    esp,0x10
 804876a:	83 ec 08             	sub    esp,0x8
 804876d:	8d 45 ed             	lea    eax,[ebp-0x13]
 8048770:	50                   	push   eax
 8048771:	68 dd 89 04 08       	push   0x80489dd
 8048776:	e8 65 fe ff ff       	call   80485e0 <__isoc99_scanf@plt>
 804877b:	83 c4 10             	add    esp,0x10
 804877e:	83 ec 04             	sub    esp,0x4
 8048781:	6a 04                	push   0x4
 8048783:	ff 75 08             	push   DWORD PTR [ebp+0x8]
 8048786:	8d 45 ed             	lea    eax,[ebp-0x13]
 8048789:	50                   	push   eax
 804878a:	e8 61 fe ff ff       	call   80485f0 <strncmp@plt>
 804878f:	83 c4 10             	add    esp,0x10
 8048792:	85 c0                	test   eax,eax
 8048794:	74 12                	je     80487a8 <mem_test+0x9d>
 8048796:	83 ec 0c             	sub    esp,0xc
 8048799:	68 e0 89 04 08       	push   0x80489e0
 804879e:	e8 cd fd ff ff       	call   8048570 <puts@plt>
 80487a3:	83 c4 10             	add    esp,0x10
 80487a6:	eb 10                	jmp    80487b8 <mem_test+0xad>
 80487a8:	83 ec 0c             	sub    esp,0xc
 80487ab:	68 fa 89 04 08       	push   0x80489fa
 80487b0:	e8 bb fd ff ff       	call   8048570 <puts@plt>
 80487b5:	83 c4 10             	add    esp,0x10
 80487b8:	90                   	nop
 80487b9:	c9                   	leave
 80487ba:	c3                   	ret

080487bb <handle_connection>:
 80487bb:	55                   	push   ebp
 80487bc:	89 e5                	mov    ebp,esp
 80487be:	83 ec 28             	sub    esp,0x28
 80487c1:	c7 45 f0 0a 00 00 00 	mov    DWORD PTR [ebp-0x10],0xa
 80487c8:	83 ec 0c             	sub    esp,0xc
 80487cb:	68 08 8a 04 08       	push   0x8048a08
 80487d0:	e8 9b fd ff ff       	call   8048570 <puts@plt>
 80487d5:	83 c4 10             	add    esp,0x10
 80487d8:	83 ec 0c             	sub    esp,0xc
 80487db:	6a 00                	push   0x0
 80487dd:	e8 7e fd ff ff       	call   8048560 <time@plt>
 80487e2:	83 c4 10             	add    esp,0x10
 80487e5:	83 ec 0c             	sub    esp,0xc
 80487e8:	50                   	push   eax
 80487e9:	e8 a2 fd ff ff       	call   8048590 <srand@plt>
 80487ee:	83 c4 10             	add    esp,0x10
 80487f1:	c7 45 f4 00 00 00 00 	mov    DWORD PTR [ebp-0xc],0x0
 80487f8:	eb 3e                	jmp    8048838 <handle_connection+0x7d>
 80487fa:	e8 d1 fd ff ff       	call   80485d0 <rand@plt>
 80487ff:	89 c1                	mov    ecx,eax
 8048801:	89 c8                	mov    eax,ecx
 8048803:	d1 e8                	shr    eax,1
 8048805:	ba 43 08 21 84       	mov    edx,0x84210843
 804880a:	f7 e2                	mul    edx
 804880c:	89 d0                	mov    eax,edx
 804880e:	c1 e8 04             	shr    eax,0x4
 8048811:	89 c2                	mov    edx,eax
 8048813:	8d 04 12             	lea    eax,[edx+edx*1]
 8048816:	89 c2                	mov    edx,eax
 8048818:	89 d0                	mov    eax,edx
 804881a:	c1 e0 05             	shl    eax,0x5
 804881d:	29 d0                	sub    eax,edx
 804881f:	29 c1                	sub    ecx,eax
 8048821:	89 c8                	mov    eax,ecx
 8048823:	0f b6 80 40 8a 04 08 	movzx  eax,BYTE PTR [eax+0x8048a40]
 804882a:	8d 4d e5             	lea    ecx,[ebp-0x1b]
 804882d:	8b 55 f4             	mov    edx,DWORD PTR [ebp-0xc]
 8048830:	01 ca                	add    edx,ecx
 8048832:	88 02                	mov    BYTE PTR [edx],al
 8048834:	83 45 f4 01          	add    DWORD PTR [ebp-0xc],0x1
 8048838:	8b 45 f4             	mov    eax,DWORD PTR [ebp-0xc]
 804883b:	3b 45 f0             	cmp    eax,DWORD PTR [ebp-0x10]
 804883e:	7c ba                	jl     80487fa <handle_connection+0x3f>
 8048840:	83 ec 08             	sub    esp,0x8
 8048843:	8d 45 e5             	lea    eax,[ebp-0x1b]
 8048846:	50                   	push   eax
 8048847:	68 dd 89 04 08       	push   0x80489dd
 804884c:	e8 ff fc ff ff       	call   8048550 <printf@plt>
 8048851:	83 c4 10             	add    esp,0x10
 8048854:	83 ec 0c             	sub    esp,0xc
 8048857:	8d 45 e5             	lea    eax,[ebp-0x1b]
 804885a:	50                   	push   eax
 804885b:	e8 ab fe ff ff       	call   804870b <mem_test>
 8048860:	83 c4 10             	add    esp,0x10
 8048863:	90                   	nop
 8048864:	c9                   	leave
 8048865:	c3                   	ret

08048866 <win_func>:
 8048866:	55                   	push   ebp
 8048867:	89 e5                	mov    ebp,esp
 8048869:	83 ec 08             	sub    esp,0x8
 804886c:	83 ec 0c             	sub    esp,0xc
 804886f:	ff 75 08             	push   DWORD PTR [ebp+0x8]
 8048872:	e8 09 fd ff ff       	call   8048580 <system@plt>
 8048877:	83 c4 10             	add    esp,0x10
 804887a:	90                   	nop
 804887b:	c9                   	leave
 804887c:	c3                   	ret

0804887d <main>:
 804887d:	8d 4c 24 04          	lea    ecx,[esp+0x4]
 8048881:	83 e4 f0             	and    esp,0xfffffff0
 8048884:	ff 71 fc             	push   DWORD PTR [ecx-0x4]
 8048887:	55                   	push   ebp
 8048888:	89 e5                	mov    ebp,esp
 804888a:	51                   	push   ecx
 804888b:	83 ec 14             	sub    esp,0x14
 804888e:	89 c8                	mov    eax,ecx
 8048890:	c7 45 ec 2b 8a 04 08 	mov    DWORD PTR [ebp-0x14],0x8048a2b
 8048897:	c6 45 f0 01          	mov    BYTE PTR [ebp-0x10],0x1
 804889b:	66 c7 45 f2 2c 23    	mov    WORD PTR [ebp-0xe],0x232c
 80488a1:	c7 45 f4 1e 00 00 00 	mov    DWORD PTR [ebp-0xc],0x1e
 80488a8:	83 ec 08             	sub    esp,0x8
 80488ab:	68 bb 87 04 08       	push   0x80487bb
 80488b0:	ff 75 f4             	push   DWORD PTR [ebp-0xc]
 80488b3:	ff 75 f0             	push   DWORD PTR [ebp-0x10]
 80488b6:	ff 75 ec             	push   DWORD PTR [ebp-0x14]
 80488b9:	ff 70 04             	push   DWORD PTR [eax+0x4]
 80488bc:	ff 30                	push   DWORD PTR [eax]
 80488be:	e8 fd fc ff ff       	call   80485c0 <server_main@plt>
 80488c3:	83 c4 20             	add    esp,0x20
 80488c6:	8b 4d fc             	mov    ecx,DWORD PTR [ebp-0x4]
 80488c9:	c9                   	leave
 80488ca:	8d 61 fc             	lea    esp,[ecx-0x4]
 80488cd:	c3                   	ret
 80488ce:	66 90                	xchg   ax,ax

080488d0 <__libc_csu_init>:
 80488d0:	55                   	push   ebp
 80488d1:	57                   	push   edi
 80488d2:	56                   	push   esi
 80488d3:	53                   	push   ebx
 80488d4:	e8 67 fd ff ff       	call   8048640 <__x86.get_pc_thunk.bx>
 80488d9:	81 c3 1f 14 00 00    	add    ebx,0x141f
 80488df:	83 ec 0c             	sub    esp,0xc
 80488e2:	8b 6c 24 20          	mov    ebp,DWORD PTR [esp+0x20]
 80488e6:	8d b3 fc fe ff ff    	lea    esi,[ebx-0x104]
 80488ec:	e8 27 fc ff ff       	call   8048518 <_init>
 80488f1:	8d 83 f8 fe ff ff    	lea    eax,[ebx-0x108]
 80488f7:	29 c6                	sub    esi,eax
 80488f9:	c1 fe 02             	sar    esi,0x2
 80488fc:	85 f6                	test   esi,esi
 80488fe:	74 25                	je     8048925 <__libc_csu_init+0x55>
 8048900:	31 ff                	xor    edi,edi
 8048902:	8d b6 00 00 00 00    	lea    esi,[esi+0x0]
 8048908:	83 ec 04             	sub    esp,0x4
 804890b:	ff 74 24 2c          	push   DWORD PTR [esp+0x2c]
 804890f:	ff 74 24 2c          	push   DWORD PTR [esp+0x2c]
 8048913:	55                   	push   ebp
 8048914:	ff 94 bb f8 fe ff ff 	call   DWORD PTR [ebx+edi*4-0x108]
 804891b:	83 c7 01             	add    edi,0x1
 804891e:	83 c4 10             	add    esp,0x10
 8048921:	39 f7                	cmp    edi,esi
 8048923:	75 e3                	jne    8048908 <__libc_csu_init+0x38>
 8048925:	83 c4 0c             	add    esp,0xc
 8048928:	5b                   	pop    ebx
 8048929:	5e                   	pop    esi
 804892a:	5f                   	pop    edi
 804892b:	5d                   	pop    ebp
 804892c:	c3                   	ret
 804892d:	8d 76 00             	lea    esi,[esi+0x0]

08048930 <__libc_csu_fini>:
 8048930:	f3 c3                	repz ret

Disassembly of section .fini:

08048934 <_fini>:
 8048934:	53                   	push   ebx
 8048935:	83 ec 08             	sub    esp,0x8
 8048938:	e8 03 fd ff ff       	call   8048640 <__x86.get_pc_thunk.bx>
 804893d:	81 c3 bb 13 00 00    	add    ebx,0x13bb
 8048943:	83 c4 08             	add    esp,0x8
 8048946:	5b                   	pop    ebx
 8048947:	c3                   	ret
