
opcode:     file format elf32-i386


Disassembly of section .init:

080482f4 <_init>:
 80482f4:	53                   	push   ebx
 80482f5:	83 ec 08             	sub    esp,0x8
 80482f8:	e8 b3 00 00 00       	call   80483b0 <__x86.get_pc_thunk.bx>
 80482fd:	81 c3 fb 14 00 00    	add    ebx,0x14fb
 8048303:	8b 83 fc ff ff ff    	mov    eax,DWORD PTR [ebx-0x4]
 8048309:	85 c0                	test   eax,eax
 804830b:	74 05                	je     8048312 <_init+0x1e>
 804830d:	e8 3e 00 00 00       	call   8048350 <__gmon_start__@plt>
 8048312:	83 c4 08             	add    esp,0x8
 8048315:	5b                   	pop    ebx
 8048316:	c3                   	ret

Disassembly of section .plt:

08048320 <printf@plt-0x10>:
 8048320:	ff 35 fc 97 04 08    	push   DWORD PTR ds:0x80497fc
 8048326:	ff 25 00 98 04 08    	jmp    DWORD PTR ds:0x8049800
 804832c:	00 00                	add    BYTE PTR [eax],al
	...

08048330 <printf@plt>:
 8048330:	ff 25 04 98 04 08    	jmp    DWORD PTR ds:0x8049804
 8048336:	68 00 00 00 00       	push   0x0
 804833b:	e9 e0 ff ff ff       	jmp    8048320 <_init+0x2c>

08048340 <puts@plt>:
 8048340:	ff 25 08 98 04 08    	jmp    DWORD PTR ds:0x8049808
 8048346:	68 08 00 00 00       	push   0x8
 804834b:	e9 d0 ff ff ff       	jmp    8048320 <_init+0x2c>

08048350 <__gmon_start__@plt>:
 8048350:	ff 25 0c 98 04 08    	jmp    DWORD PTR ds:0x804980c
 8048356:	68 10 00 00 00       	push   0x10
 804835b:	e9 c0 ff ff ff       	jmp    8048320 <_init+0x2c>

08048360 <__libc_start_main@plt>:
 8048360:	ff 25 10 98 04 08    	jmp    DWORD PTR ds:0x8049810
 8048366:	68 18 00 00 00       	push   0x18
 804836b:	e9 b0 ff ff ff       	jmp    8048320 <_init+0x2c>

08048370 <__isoc99_scanf@plt>:
 8048370:	ff 25 14 98 04 08    	jmp    DWORD PTR ds:0x8049814
 8048376:	68 20 00 00 00       	push   0x20
 804837b:	e9 a0 ff ff ff       	jmp    8048320 <_init+0x2c>

Disassembly of section .text:

08048380 <_start>:
 8048380:	31 ed                	xor    ebp,ebp
 8048382:	5e                   	pop    esi
 8048383:	89 e1                	mov    ecx,esp
 8048385:	83 e4 f0             	and    esp,0xfffffff0
 8048388:	50                   	push   eax
 8048389:	54                   	push   esp
 804838a:	52                   	push   edx
 804838b:	68 70 85 04 08       	push   0x8048570
 8048390:	68 10 85 04 08       	push   0x8048510
 8048395:	51                   	push   ecx
 8048396:	56                   	push   esi
 8048397:	68 c2 84 04 08       	push   0x80484c2
 804839c:	e8 bf ff ff ff       	call   8048360 <__libc_start_main@plt>
 80483a1:	f4                   	hlt
 80483a2:	66 90                	xchg   ax,ax
 80483a4:	66 90                	xchg   ax,ax
 80483a6:	66 90                	xchg   ax,ax
 80483a8:	66 90                	xchg   ax,ax
 80483aa:	66 90                	xchg   ax,ax
 80483ac:	66 90                	xchg   ax,ax
 80483ae:	66 90                	xchg   ax,ax

080483b0 <__x86.get_pc_thunk.bx>:
 80483b0:	8b 1c 24             	mov    ebx,DWORD PTR [esp]
 80483b3:	c3                   	ret
 80483b4:	66 90                	xchg   ax,ax
 80483b6:	66 90                	xchg   ax,ax
 80483b8:	66 90                	xchg   ax,ax
 80483ba:	66 90                	xchg   ax,ax
 80483bc:	66 90                	xchg   ax,ax
 80483be:	66 90                	xchg   ax,ax

080483c0 <deregister_tm_clones>:
 80483c0:	b8 23 98 04 08       	mov    eax,0x8049823
 80483c5:	2d 20 98 04 08       	sub    eax,0x8049820
 80483ca:	83 f8 06             	cmp    eax,0x6
 80483cd:	76 1a                	jbe    80483e9 <deregister_tm_clones+0x29>
 80483cf:	b8 00 00 00 00       	mov    eax,0x0
 80483d4:	85 c0                	test   eax,eax
 80483d6:	74 11                	je     80483e9 <deregister_tm_clones+0x29>
 80483d8:	55                   	push   ebp
 80483d9:	89 e5                	mov    ebp,esp
 80483db:	83 ec 14             	sub    esp,0x14
 80483de:	68 20 98 04 08       	push   0x8049820
 80483e3:	ff d0                	call   eax
 80483e5:	83 c4 10             	add    esp,0x10
 80483e8:	c9                   	leave
 80483e9:	f3 c3                	repz ret
 80483eb:	90                   	nop
 80483ec:	8d 74 26 00          	lea    esi,[esi+eiz*1+0x0]

080483f0 <register_tm_clones>:
 80483f0:	b8 20 98 04 08       	mov    eax,0x8049820
 80483f5:	2d 20 98 04 08       	sub    eax,0x8049820
 80483fa:	c1 f8 02             	sar    eax,0x2
 80483fd:	89 c2                	mov    edx,eax
 80483ff:	c1 ea 1f             	shr    edx,0x1f
 8048402:	01 d0                	add    eax,edx
 8048404:	d1 f8                	sar    eax,1
 8048406:	74 1b                	je     8048423 <register_tm_clones+0x33>
 8048408:	ba 00 00 00 00       	mov    edx,0x0
 804840d:	85 d2                	test   edx,edx
 804840f:	74 12                	je     8048423 <register_tm_clones+0x33>
 8048411:	55                   	push   ebp
 8048412:	89 e5                	mov    ebp,esp
 8048414:	83 ec 10             	sub    esp,0x10
 8048417:	50                   	push   eax
 8048418:	68 20 98 04 08       	push   0x8049820
 804841d:	ff d2                	call   edx
 804841f:	83 c4 10             	add    esp,0x10
 8048422:	c9                   	leave
 8048423:	f3 c3                	repz ret
 8048425:	8d 74 26 00          	lea    esi,[esi+eiz*1+0x0]
 8048429:	8d bc 27 00 00 00 00 	lea    edi,[edi+eiz*1+0x0]

08048430 <__do_global_dtors_aux>:
 8048430:	80 3d 20 98 04 08 00 	cmp    BYTE PTR ds:0x8049820,0x0
 8048437:	75 13                	jne    804844c <__do_global_dtors_aux+0x1c>
 8048439:	55                   	push   ebp
 804843a:	89 e5                	mov    ebp,esp
 804843c:	83 ec 08             	sub    esp,0x8
 804843f:	e8 7c ff ff ff       	call   80483c0 <deregister_tm_clones>
 8048444:	c6 05 20 98 04 08 01 	mov    BYTE PTR ds:0x8049820,0x1
 804844b:	c9                   	leave
 804844c:	f3 c3                 ret
 804844e:	66 90                	xchg   ax,ax

08048450 <frame_dummy>:
 8048450:	b8 08 97 04 08       	mov    eax,0x8049708
 8048455:	8b 10                	mov    edx,DWORD PTR [eax]
 8048457:	85 d2                	test   edx,edx
 8048459:	75 05                	jne    8048460 <frame_dummy+0x10>
 804845b:	eb 93                	jmp    80483f0 <register_tm_clones>
 804845d:	8d 76 00             	lea    esi,[esi+0x0]
 8048460:	ba 00 00 00 00       	mov    edx,0x0
 8048465:	85 d2                	test   edx,edx
 8048467:	74 f2                	je     804845b <frame_dummy+0xb>
 8048469:	55                   	push   ebp
 804846a:	89 e5                	mov    ebp,esp
 804846c:	83 ec 14             	sub    esp0x14
 804846f:	50                   	push   ea
 8048470:	ff d2                	call   edx
 8048472:	83 c4 10             	add    esp,0x10
 8048475:	c9                   	leave
 8048476:	e9 75 ff ff ff       	jmp    80483f0 <register_tm_clones>

0804847b <func>:
 804847b:	55                   	push   ebp
 804847c:	89 e5                	mov    ebp,esp
 804847e:	83 ec 18             	sub    esp,0x18
 8048481:	83 ec 0c             	sub    esp,0xc
 8048484:	68 90 85 04 08       	push   0x8048590
 8048489:	e8 b2 fe ff ff       	call   8048340 <puts@plt>
 804848e:	83 c4 10             	add    esp,0x10
 8048491:	83 ec 08             	sub    esp,0x8
 8048494:	8d 45 ee             	lea    eax,[ebp-0x12]
 8048497:	50                   	push   eax
 8048498:	68 a2 85 04 08       	push   0x80485a2			//posible return address
 804849d:	e8 ce fe ff ff       	call   8048370 <__isoc99_scanf@plt>
 80484a2:	83 c4 10             	add    esp,0x10
 80484a5:	a1 24 98 04 08       	mov    eax,ds:0x8049824 #
 80484aa:	83 ec 04             	sub    esp,0x4
 80484ad:	50                   	push   eax
 80484ae:	8d 45 ee             	lea    eax,[ebp-0x12]
 80484b1:	50                   	push   eax
 80484b2:	68 a8 85 04 08       	push   0x80485a8
 80484b7:	e8 74 fe ff ff       	call   8048330 <printf@plt>
 80484bc:	83 c4 10             	add    esp,0x10
 80484bf:	90                   	nop
 80484c0:	c9                   	leave
 80484c1:	c3                   	ret

080484c2 <`main`>:
 80484c2:	8d 4c 24 04          	lea    ecx,[esp+0x4]
 80484c6:	83 e4 f0             	and    esp,0xfffffff0
 80484c9:	ff 71 fc             	push   DWORD PTR [ecx-0x4]
 80484cc:	55                   	push   ebp
 80484cd:	89 e5                	mov    ebp,esp
 80484cf:	51                   	push   ecx
 80484d0:	83 ec 04             	sub    esp,0x4
 80484d3:	83 ec 0c             	sub    esp,0xc
 80484d6:	68 ca 85 04 08       	push   0x80485ca
 80484db:	e8 60 fe ff ff       	call   8048340 <puts@plt>
 80484e0:	83 c4 10             	add    esp,0x10
 80484e3:	83 ec 08             	sub    esp,0x8
 80484e6:	68 24 98 04 08       	push   0x8049824
 80484eb:	68 db 85 04 08       	push   0x80485db
 80484f0:	e8 7b fe ff ff       	call   8048370 <__isoc99_scanf@plt>
 80484f5:	83 c4 10             	add    esp,0x10
 80484f8:	e8 7e ff ff ff       	call   804847b <func>
 80484fd:	b8 00 00 00 00       	mov    eax,0x0
 8048502:	8b 4d fc             	mov    ecx,DWORD PTR [ebp-0x4]
 8048505:	c9                   	leave
 8048506:	8d 61 fc             	lea    esp,[ecx-0x4]
 8048509:	c3                   	ret
 804850a:	66 90                	xchg   ax,ax
 804850c:	66 90                	xchg   ax,ax
 804850e:	66 90                	xchg   ax,ax

08048510 <__libc_csu_init>:
 8048510:	55                   	push   ebp
 8048511:	57                   	push   edi
 8048512:	56                   	push   esi
 8048513:	53                   	push   ebx
 8048514:	e8 97 fe ff ff       	call   80483b0 <__x86.get_pc_thunk.bx>
 8048519:	81 c3 df 12 00 00    	add    ebx,0x12df
 804851f:	83 ec 0c             	sub    esp,0xc
 8048522:	8b 6c 24 20          	mov    ebp,DWORD PTR [esp+0x20]
 8048526:	8d b3 0c ff ff ff    	lea    esi,[ebx-0xf4]
 804852c:	e8 c3 fd ff ff       	call   80482f4 <_init>
 8048531:	8d 83 08 ff ff ff    	lea    eax,[ebx-0xf8]
 8048537:	29 c6                	sub    esi,eax
 8048539:	c1 fe 02             	sar    esi,0x2
 804853c:	85 f6                	test   esi,esi
 804853e:	74 25                	je     8048565 <__libc_csu_init+0x55>
 8048540:	31 ff                	xor    edi,edi
 8048542:	8d b6 00 00 00 00    	lea    esi,[esi+0x0]
 8048548:	83 ec 04             	sub    esp,0x4
 804854b:	ff 74 24 2c          	push   DWORD PTR [esp+0x2c]
 804854f:	ff 74 24 2c          	push   DWORD PTR [esp+0x2c]
 8048553:	55                   	push   ebp
 8048554:	ff 94 bb 08 ff ff ff 	call   DWORD PTR [ebx+edi*4-0xf8]
 804855b:	83 c7 01             	add    edi,0x1
 804855e:	83 c4 10             	add    esp,0x10
 8048561:	39 f7                	cmp    edi,esi
 8048563:	75 e3                	jne    8048548 <__libc_csu_init+0x38>
 8048565:	83 c4 0c             	add    esp,0xc
 8048568:	5b                   	pop    ebx
 8048569:	5e                   	pop    esi
 804856a:	5f                   	pop    edi
 804856b:	5d                   	pop    ebp
 804856c:	c3                   	ret
 804856d:	8d 76 00             	lea    esi,[esi+0x0]

08048570 <__libc_csu_fini>:
 8048570:	f3 c3                	repz ret

Disassembly of section .fini:

08048574 <_fini>:
 8048574:	53                   	push   ebx
 8048575:	83 ec 08             	sub    esp,0x8
 8048578:	e8 33 fe ff ff       	call   80483b0 <__x86.get_pc_thunk.bx>
 804857d:	81 c3 7b 12 00 00    	add    ebx,0x127b
 8048583:	83 c4 08             	add    esp,0x8
 8048586:	5b                   	pop    ebx
 8048587:	c3                   	ret
