
dance_noflag:     file format elf32-i386


Disassembly of section .init:

080483c8 <_init>:
 80483c8:	53                   	push   ebx
 80483c9:	83 ec 08             	sub    esp,0x8
 80483cc:	e8 ef 00 00 00       	call   80484c0 <__x86.get_pc_thunk.bx>
 80483d1:	81 c3 7b 18 00 00    	add    ebx,0x187b
 80483d7:	8b 83 fc ff ff ff    	mov    eax,DWORD PTR [ebx-0x4]
 80483dd:	85 c0                	test   eax,eax
 80483df:	74 05                	je     80483e6 <_init+0x1e>
 80483e1:	e8 6a 00 00 00       	call   8048450 <__gmon_start__@plt>
 80483e6:	e8 45 01 00 00       	call   8048530 <frame_dummy>
 80483eb:	e8 c0 04 00 00       	call   80488b0 <__do_global_ctors_aux>
 80483f0:	83 c4 08             	add    esp,0x8
 80483f3:	5b                   	pop    ebx
 80483f4:	c3                   	ret    

Disassembly of section .plt:

08048400 <printf@plt-0x10>:
 8048400:	ff 35 50 9c 04 08    	push   DWORD PTR ds:0x8049c50
 8048406:	ff 25 54 9c 04 08    	jmp    DWORD PTR ds:0x8049c54
 804840c:	00 00                	add    BYTE PTR [eax],al
	...

08048410 <printf@plt>:
 8048410:	ff 25 58 9c 04 08    	jmp    DWORD PTR ds:0x8049c58
 8048416:	68 00 00 00 00       	push   0x0
 804841b:	e9 e0 ff ff ff       	jmp    8048400 <_init+0x38>

08048420 <fflush@plt>:
 8048420:	ff 25 5c 9c 04 08    	jmp    DWORD PTR ds:0x8049c5c
 8048426:	68 08 00 00 00       	push   0x8
 804842b:	e9 d0 ff ff ff       	jmp    8048400 <_init+0x38>

08048430 <fgets@plt>:
 8048430:	ff 25 60 9c 04 08    	jmp    DWORD PTR ds:0x8049c60
 8048436:	68 10 00 00 00       	push   0x10
 804843b:	e9 c0 ff ff ff       	jmp    8048400 <_init+0x38>

08048440 <usleep@plt>:
 8048440:	ff 25 64 9c 04 08    	jmp    DWORD PTR ds:0x8049c64
 8048446:	68 18 00 00 00       	push   0x18
 804844b:	e9 b0 ff ff ff       	jmp    8048400 <_init+0x38>

08048450 <__gmon_start__@plt>:
 8048450:	ff 25 68 9c 04 08    	jmp    DWORD PTR ds:0x8049c68
 8048456:	68 20 00 00 00       	push   0x20
 804845b:	e9 a0 ff ff ff       	jmp    8048400 <_init+0x38>

08048460 <strlen@plt>:
 8048460:	ff 25 6c 9c 04 08    	jmp    DWORD PTR ds:0x8049c6c
 8048466:	68 28 00 00 00       	push   0x28
 804846b:	e9 90 ff ff ff       	jmp    8048400 <_init+0x38>

08048470 <__libc_start_main@plt>:
 8048470:	ff 25 70 9c 04 08    	jmp    DWORD PTR ds:0x8049c70
 8048476:	68 30 00 00 00       	push   0x30
 804847b:	e9 80 ff ff ff       	jmp    8048400 <_init+0x38>

08048480 <memset@plt>:
 8048480:	ff 25 74 9c 04 08    	jmp    DWORD PTR ds:0x8049c74
 8048486:	68 38 00 00 00       	push   0x38
 804848b:	e9 70 ff ff ff       	jmp    8048400 <_init+0x38>

Disassembly of section .text:

08048490 <_start>:
 8048490:	31 ed                	xor    ebp,ebp
 8048492:	5e                   	pop    esi
 8048493:	89 e1                	mov    ecx,esp
 8048495:	83 e4 f0             	and    esp,0xfffffff0
 8048498:	50                   	push   eax
 8048499:	54                   	push   esp
 804849a:	52                   	push   edx
 804849b:	68 a0 88 04 08       	push   0x80488a0
 80484a0:	68 30 88 04 08       	push   0x8048830
 80484a5:	51                   	push   ecx
 80484a6:	56                   	push   esi
 80484a7:	68 a0 85 04 08       	push   0x80485a0
 80484ac:	e8 bf ff ff ff       	call   8048470 <__libc_start_main@plt>
 80484b1:	f4                   	hlt    
 80484b2:	66 90                	xchg   ax,ax
 80484b4:	66 90                	xchg   ax,ax
 80484b6:	66 90                	xchg   ax,ax
 80484b8:	66 90                	xchg   ax,ax
 80484ba:	66 90                	xchg   ax,ax
 80484bc:	66 90                	xchg   ax,ax
 80484be:	66 90                	xchg   ax,ax

080484c0 <__x86.get_pc_thunk.bx>:
 80484c0:	8b 1c 24             	mov    ebx,DWORD PTR [esp]
 80484c3:	c3                   	ret    
 80484c4:	66 90                	xchg   ax,ax
 80484c6:	66 90                	xchg   ax,ax
 80484c8:	66 90                	xchg   ax,ax
 80484ca:	66 90                	xchg   ax,ax
 80484cc:	66 90                	xchg   ax,ax
 80484ce:	66 90                	xchg   ax,ax

080484d0 <__do_global_dtors_aux>:
 80484d0:	55                   	push   ebp
 80484d1:	89 e5                	mov    ebp,esp
 80484d3:	53                   	push   ebx
 80484d4:	83 ec 04             	sub    esp,0x4
 80484d7:	80 3d a4 9c 04 08 00 	cmp    BYTE PTR ds:0x8049ca4,0x0
 80484de:	75 3f                	jne    804851f <__do_global_dtors_aux+0x4f>
 80484e0:	a1 a8 9c 04 08       	mov    eax,ds:0x8049ca8
 80484e5:	bb 70 9b 04 08       	mov    ebx,0x8049b70
 80484ea:	81 eb 6c 9b 04 08    	sub    ebx,0x8049b6c
 80484f0:	c1 fb 02             	sar    ebx,0x2
 80484f3:	83 eb 01             	sub    ebx,0x1
 80484f6:	39 d8                	cmp    eax,ebx
 80484f8:	73 1e                	jae    8048518 <__do_global_dtors_aux+0x48>
 80484fa:	8d b6 00 00 00 00    	lea    esi,[esi+0x0]
 8048500:	83 c0 01             	add    eax,0x1
 8048503:	a3 a8 9c 04 08       	mov    ds:0x8049ca8,eax
 8048508:	ff 14 85 6c 9b 04 08 	call   DWORD PTR [eax*4+0x8049b6c]
 804850f:	a1 a8 9c 04 08       	mov    eax,ds:0x8049ca8
 8048514:	39 d8                	cmp    eax,ebx
 8048516:	72 e8                	jb     8048500 <__do_global_dtors_aux+0x30>
 8048518:	c6 05 a4 9c 04 08 01 	mov    BYTE PTR ds:0x8049ca4,0x1
 804851f:	83 c4 04             	add    esp,0x4
 8048522:	5b                   	pop    ebx
 8048523:	5d                   	pop    ebp
 8048524:	c3                   	ret    
 8048525:	8d 74 26 00          	lea    esi,[esi+eiz*1+0x0]
 8048529:	8d bc 27 00 00 00 00 	lea    edi,[edi+eiz*1+0x0]

08048530 <frame_dummy>:
 8048530:	55                   	push   ebp
 8048531:	89 e5                	mov    ebp,esp
 8048533:	83 ec 18             	sub    esp,0x18
 8048536:	a1 74 9b 04 08       	mov    eax,ds:0x8049b74
 804853b:	85 c0                	test   eax,eax
 804853d:	74 12                	je     8048551 <frame_dummy+0x21>
 804853f:	b8 00 00 00 00       	mov    eax,0x0
 8048544:	85 c0                	test   eax,eax
 8048546:	74 09                	je     8048551 <frame_dummy+0x21>
 8048548:	c7 04 24 74 9b 04 08 	mov    DWORD PTR [esp],0x8049b74
 804854f:	ff d0                	call   eax
 8048551:	c9                   	leave  
 8048552:	c3                   	ret    
 8048553:	66 90                	xchg   ax,ax
 8048555:	66 90                	xchg   ax,ax
 8048557:	66 90                	xchg   ax,ax
 8048559:	66 90                	xchg   ax,ax
 804855b:	66 90                	xchg   ax,ax
 804855d:	66 90                	xchg   ax,ax
 804855f:	90                   	nop

08048560 <do_whip>:
 8048560:	55                   	push   ebp
 8048561:	89 e5                	mov    ebp,esp
 8048563:	83 ec 08             	sub    esp,0x8
 8048566:	8d 05 00 89 04 08    	lea    eax,ds:0x8048900
 804856c:	89 04 24             	mov    DWORD PTR [esp],eax
 804856f:	e8 9c fe ff ff       	call   8048410 <printf@plt>
 8048574:	89 45 fc             	mov    DWORD PTR [ebp-0x4],eax
 8048577:	83 c4 08             	add    esp,0x8
 804857a:	5d                   	pop    ebp
 804857b:	c3                   	ret    
 804857c:	0f 1f 40 00          	nop    DWORD PTR [eax+0x0]

08048580 <do_naenae>:
 8048580:	55                   	push   ebp
 8048581:	89 e5                	mov    ebp,esp
 8048583:	83 ec 08             	sub    esp,0x8
 8048586:	8d 05 1f 89 04 08    	lea    eax,ds:0x804891f
 804858c:	89 04 24             	mov    DWORD PTR [esp],eax
 804858f:	e8 7c fe ff ff       	call   8048410 <printf@plt>
 8048594:	89 45 fc             	mov    DWORD PTR [ebp-0x4],eax
 8048597:	83 c4 08             	add    esp,0x8
 804859a:	5d                   	pop    ebp
 804859b:	c3                   	ret    
 804859c:	0f 1f 40 00          	nop    DWORD PTR [eax+0x0]

080485a0 <main>:
 80485a0:	55                   	push   ebp
 80485a1:	89 e5                	mov    ebp,esp
 80485a3:	56                   	push   esi
 80485a4:	81 ec d4 00 00 00    	sub    esp,0xd4
 80485aa:	b8 00 00 00 00       	mov    eax,0x0
 80485af:	b9 50 00 00 00       	mov    ecx,0x50
 80485b4:	8d 55 a0             	lea    edx,[ebp-0x60]
 80485b7:	c7 45 f8 00 00 00 00 	mov    DWORD PTR [ebp-0x8],0x0
 80485be:	c7 45 f4 00 00 00 00 	mov    DWORD PTR [ebp-0xc],0x0
 80485c5:	c7 45 f0 00 00 00 00 	mov    DWORD PTR [ebp-0x10],0x0
 80485cc:	89 14 24             	mov    DWORD PTR [esp],edx
 80485cf:	c7 44 24 04 00 00 00 	mov    DWORD PTR [esp+0x4],0x0
 80485d6:	00 
 80485d7:	c7 44 24 08 50 00 00 	mov    DWORD PTR [esp+0x8],0x50
 80485de:	00 
 80485df:	89 45 98             	mov    DWORD PTR [ebp-0x68],eax
 80485e2:	89 4d 94             	mov    DWORD PTR [ebp-0x6c],ecx
 80485e5:	e8 96 fe ff ff       	call   8048480 <memset@plt>
 80485ea:	8d 05 42 89 04 08    	lea    eax,ds:0x8048942
 80485f0:	c7 45 f4 c9 aa ad 12 	mov    DWORD PTR [ebp-0xc],0x12adaac9
 80485f7:	89 04 24             	mov    DWORD PTR [esp],eax
 80485fa:	e8 11 fe ff ff       	call   8048410 <printf@plt>
 80485ff:	8b 0d a0 9c 04 08    	mov    ecx,DWORD PTR ds:0x8049ca0
 8048605:	89 0c 24             	mov    DWORD PTR [esp],ecx
 8048608:	89 45 90             	mov    DWORD PTR [ebp-0x70],eax
 804860b:	e8 10 fe ff ff       	call   8048420 <fflush@plt>
 8048610:	b9 59 00 00 00       	mov    ecx,0x59
 8048615:	8d 55 a0             	lea    edx,[ebp-0x60]
 8048618:	8b 35 80 9c 04 08    	mov    esi,DWORD PTR ds:0x8049c80
 804861e:	89 14 24             	mov    DWORD PTR [esp],edx
 8048621:	c7 44 24 04 59 00 00 	mov    DWORD PTR [esp+0x4],0x59
 8048628:	00 
 8048629:	89 74 24 08          	mov    DWORD PTR [esp+0x8],esi
 804862d:	89 45 8c             	mov    DWORD PTR [ebp-0x74],eax
 8048630:	89 4d 88             	mov    DWORD PTR [ebp-0x78],ecx
 8048633:	e8 f8 fd ff ff       	call   8048430 <fgets@plt>
 8048638:	8d 4d a0             	lea    ecx,[ebp-0x60]
 804863b:	89 4d 9c             	mov    DWORD PTR [ebp-0x64],ecx
 804863e:	89 45 84             	mov    DWORD PTR [ebp-0x7c],eax
 8048641:	8b 45 9c             	mov    eax,DWORD PTR [ebp-0x64]
 8048644:	89 04 24             	mov    DWORD PTR [esp],eax
 8048647:	e8 14 fe ff ff       	call   8048460 <strlen@plt>
 804864c:	3d 00 00 00 00       	cmp    eax,0x0
 8048651:	0f 86 28 01 00 00    	jbe    804877f <main+0x1df>
 8048657:	8b 45 9c             	mov    eax,DWORD PTR [ebp-0x64]
 804865a:	0f be 00             	movsx  eax,BYTE PTR [eax]
 804865d:	3d 77 00 00 00       	cmp    eax,0x77
 8048662:	0f 85 88 00 00 00    	jne    80486f0 <main+0x150>
 8048668:	8d 05 f3 89 04 08    	lea    eax,ds:0x80489f3
 804866e:	8b 4d 9c             	mov    ecx,DWORD PTR [ebp-0x64]
 8048671:	81 c1 05 00 00 00    	add    ecx,0x5
 8048677:	89 4d 9c             	mov    DWORD PTR [ebp-0x64],ecx
 804867a:	89 04 24             	mov    DWORD PTR [esp],eax
 804867d:	e8 8e fd ff ff       	call   8048410 <printf@plt>
 8048682:	8b 0d a0 9c 04 08    	mov    ecx,DWORD PTR ds:0x8049ca0
 8048688:	89 0c 24             	mov    DWORD PTR [esp],ecx
 804868b:	89 45 80             	mov    DWORD PTR [ebp-0x80],eax
 804868e:	e8 8d fd ff ff       	call   8048420 <fflush@plt>
 8048693:	b9 00 35 0c 00       	mov    ecx,0xc3500
 8048698:	c7 04 24 00 35 0c 00 	mov    DWORD PTR [esp],0xc3500
 804869f:	89 8d 7c ff ff ff    	mov    DWORD PTR [ebp-0x84],ecx
 80486a5:	89 85 78 ff ff ff    	mov    DWORD PTR [ebp-0x88],eax
 80486ab:	e8 90 fd ff ff       	call   8048440 <usleep@plt>
 80486b0:	89 85 74 ff ff ff    	mov    DWORD PTR [ebp-0x8c],eax
 80486b6:	e8 a5 fe ff ff       	call   8048560 <do_whip>
 80486bb:	a1 a0 9c 04 08       	mov    eax,ds:0x8049ca0
 80486c0:	89 04 24             	mov    DWORD PTR [esp],eax
 80486c3:	e8 58 fd ff ff       	call   8048420 <fflush@plt>
 80486c8:	b9 20 a1 07 00       	mov    ecx,0x7a120
 80486cd:	c7 04 24 20 a1 07 00 	mov    DWORD PTR [esp],0x7a120
 80486d4:	89 85 70 ff ff ff    	mov    DWORD PTR [ebp-0x90],eax
 80486da:	89 8d 6c ff ff ff    	mov    DWORD PTR [ebp-0x94],ecx
 80486e0:	e8 5b fd ff ff       	call   8048440 <usleep@plt>
 80486e5:	89 85 68 ff ff ff    	mov    DWORD PTR [ebp-0x98],eax
 80486eb:	e9 8a 00 00 00       	jmp    804877a <main+0x1da>
 80486f0:	8b 45 9c             	mov    eax,DWORD PTR [ebp-0x64]
 80486f3:	0f be 00             	movsx  eax,BYTE PTR [eax]
 80486f6:	3d 6e 00 00 00       	cmp    eax,0x6e
 80486fb:	0f 85 6e 00 00 00    	jne    804876f <main+0x1cf>
 8048701:	8d 05 01 8a 04 08    	lea    eax,ds:0x8048a01
 8048707:	8b 4d 9c             	mov    ecx,DWORD PTR [ebp-0x64]
 804870a:	81 c1 07 00 00 00    	add    ecx,0x7
 8048710:	89 4d 9c             	mov    DWORD PTR [ebp-0x64],ecx
 8048713:	89 04 24             	mov    DWORD PTR [esp],eax
 8048716:	e8 f5 fc ff ff       	call   8048410 <printf@plt>
 804871b:	8b 0d a0 9c 04 08    	mov    ecx,DWORD PTR ds:0x8049ca0
 8048721:	89 0c 24             	mov    DWORD PTR [esp],ecx
 8048724:	89 85 64 ff ff ff    	mov    DWORD PTR [ebp-0x9c],eax
 804872a:	e8 f1 fc ff ff       	call   8048420 <fflush@plt>
 804872f:	b9 20 a1 07 00       	mov    ecx,0x7a120
 8048734:	c7 04 24 20 a1 07 00 	mov    DWORD PTR [esp],0x7a120
 804873b:	89 85 60 ff ff ff    	mov    DWORD PTR [ebp-0xa0],eax
 8048741:	89 8d 5c ff ff ff    	mov    DWORD PTR [ebp-0xa4],ecx
 8048747:	e8 f4 fc ff ff       	call   8048440 <usleep@plt>
 804874c:	89 85 58 ff ff ff    	mov    DWORD PTR [ebp-0xa8],eax
 8048752:	e8 29 fe ff ff       	call   8048580 <do_naenae>
 8048757:	a1 a0 9c 04 08       	mov    eax,ds:0x8049ca0
 804875c:	89 04 24             	mov    DWORD PTR [esp],eax
 804875f:	e8 bc fc ff ff       	call   8048420 <fflush@plt>
 8048764:	89 85 54 ff ff ff    	mov    DWORD PTR [ebp-0xac],eax
 804876a:	e9 0b 00 00 00       	jmp    804877a <main+0x1da>
 804876f:	8b 45 9c             	mov    eax,DWORD PTR [ebp-0x64]
 8048772:	05 01 00 00 00       	add    eax,0x1
 8048777:	89 45 9c             	mov    DWORD PTR [ebp-0x64],eax
 804877a:	e9 c2 fe ff ff       	jmp    8048641 <main+0xa1>
 804877f:	81 7d f4 c9 aa ad 12 	cmp    DWORD PTR [ebp-0xc],0x12adaac9
 8048786:	0f 85 3a 00 00 00    	jne    80487c6 <main+0x226>
 804878c:	81 7d f0 00 00 00 00 	cmp    DWORD PTR [ebp-0x10],0x0
 8048793:	0f 84 28 00 00 00    	je     80487c1 <main+0x221>
 8048799:	8d 05 10 8a 04 08    	lea    eax,ds:0x8048a10
 804879f:	89 04 24             	mov    DWORD PTR [esp],eax
 80487a2:	e8 69 fc ff ff       	call   8048410 <printf@plt>
 80487a7:	8b 0d a0 9c 04 08    	mov    ecx,DWORD PTR ds:0x8049ca0
 80487ad:	89 0c 24             	mov    DWORD PTR [esp],ecx
 80487b0:	89 85 50 ff ff ff    	mov    DWORD PTR [ebp-0xb0],eax
 80487b6:	e8 65 fc ff ff       	call   8048420 <fflush@plt>
 80487bb:	89 85 4c ff ff ff    	mov    DWORD PTR [ebp-0xb4],eax
 80487c1:	e9 28 00 00 00       	jmp    80487ee <main+0x24e>
 80487c6:	8d 05 69 8a 04 08    	lea    eax,ds:0x8048a69
 80487cc:	89 04 24             	mov    DWORD PTR [esp],eax
 80487cf:	e8 3c fc ff ff       	call   8048410 <printf@plt>
 80487d4:	8b 0d a0 9c 04 08    	mov    ecx,DWORD PTR ds:0x8049ca0
 80487da:	89 0c 24             	mov    DWORD PTR [esp],ecx
 80487dd:	89 85 48 ff ff ff    	mov    DWORD PTR [ebp-0xb8],eax
 80487e3:	e8 38 fc ff ff       	call   8048420 <fflush@plt>
 80487e8:	89 85 44 ff ff ff    	mov    DWORD PTR [ebp-0xbc],eax
 80487ee:	8d 05 94 8a 04 08    	lea    eax,ds:0x8048a94
 80487f4:	89 04 24             	mov    DWORD PTR [esp],eax
 80487f7:	e8 14 fc ff ff       	call   8048410 <printf@plt>
 80487fc:	8b 0d a0 9c 04 08    	mov    ecx,DWORD PTR ds:0x8049ca0
 8048802:	89 0c 24             	mov    DWORD PTR [esp],ecx
 8048805:	89 85 40 ff ff ff    	mov    DWORD PTR [ebp-0xc0],eax
 804880b:	e8 10 fc ff ff       	call   8048420 <fflush@plt>
 8048810:	b9 00 00 00 00       	mov    ecx,0x0
 8048815:	89 85 3c ff ff ff    	mov    DWORD PTR [ebp-0xc4],eax
 804881b:	89 c8                	mov    eax,ecx
 804881d:	81 c4 d4 00 00 00    	add    esp,0xd4
 8048823:	5e                   	pop    esi
 8048824:	5d                   	pop    ebp
 8048825:	c3                   	ret    
 8048826:	66 90                	xchg   ax,ax
 8048828:	66 90                	xchg   ax,ax
 804882a:	66 90                	xchg   ax,ax
 804882c:	66 90                	xchg   ax,ax
 804882e:	66 90                	xchg   ax,ax

08048830 <__libc_csu_init>:
 8048830:	55                   	push   ebp
 8048831:	57                   	push   edi
 8048832:	31 ff                	xor    edi,edi
 8048834:	56                   	push   esi
 8048835:	53                   	push   ebx
 8048836:	e8 85 fc ff ff       	call   80484c0 <__x86.get_pc_thunk.bx>
 804883b:	81 c3 11 14 00 00    	add    ebx,0x1411
 8048841:	83 ec 1c             	sub    esp,0x1c
 8048844:	8b 6c 24 30          	mov    ebp,DWORD PTR [esp+0x30]
 8048848:	8d b3 18 ff ff ff    	lea    esi,[ebx-0xe8]
 804884e:	e8 75 fb ff ff       	call   80483c8 <_init>
 8048853:	8d 83 18 ff ff ff    	lea    eax,[ebx-0xe8]
 8048859:	29 c6                	sub    esi,eax
 804885b:	c1 fe 02             	sar    esi,0x2
 804885e:	85 f6                	test   esi,esi
 8048860:	74 27                	je     8048889 <__libc_csu_init+0x59>
 8048862:	8d b6 00 00 00 00    	lea    esi,[esi+0x0]
 8048868:	8b 44 24 38          	mov    eax,DWORD PTR [esp+0x38]
 804886c:	89 2c 24             	mov    DWORD PTR [esp],ebp
 804886f:	89 44 24 08          	mov    DWORD PTR [esp+0x8],eax
 8048873:	8b 44 24 34          	mov    eax,DWORD PTR [esp+0x34]
 8048877:	89 44 24 04          	mov    DWORD PTR [esp+0x4],eax
 804887b:	ff 94 bb 18 ff ff ff 	call   DWORD PTR [ebx+edi*4-0xe8]
 8048882:	83 c7 01             	add    edi,0x1
 8048885:	39 f7                	cmp    edi,esi
 8048887:	75 df                	jne    8048868 <__libc_csu_init+0x38>
 8048889:	83 c4 1c             	add    esp,0x1c
 804888c:	5b                   	pop    ebx
 804888d:	5e                   	pop    esi
 804888e:	5f                   	pop    edi
 804888f:	5d                   	pop    ebp
 8048890:	c3                   	ret    
 8048891:	eb 0d                	jmp    80488a0 <__libc_csu_fini>
 8048893:	90                   	nop
 8048894:	90                   	nop
 8048895:	90                   	nop
 8048896:	90                   	nop
 8048897:	90                   	nop
 8048898:	90                   	nop
 8048899:	90                   	nop
 804889a:	90                   	nop
 804889b:	90                   	nop
 804889c:	90                   	nop
 804889d:	90                   	nop
 804889e:	90                   	nop
 804889f:	90                   	nop

080488a0 <__libc_csu_fini>:
 80488a0:	f3 c3                	repz ret 
 80488a2:	66 90                	xchg   ax,ax
 80488a4:	66 90                	xchg   ax,ax
 80488a6:	66 90                	xchg   ax,ax
 80488a8:	66 90                	xchg   ax,ax
 80488aa:	66 90                	xchg   ax,ax
 80488ac:	66 90                	xchg   ax,ax
 80488ae:	66 90                	xchg   ax,ax

080488b0 <__do_global_ctors_aux>:
 80488b0:	55                   	push   ebp
 80488b1:	89 e5                	mov    ebp,esp
 80488b3:	53                   	push   ebx
 80488b4:	83 ec 04             	sub    esp,0x4
 80488b7:	a1 64 9b 04 08       	mov    eax,ds:0x8049b64
 80488bc:	83 f8 ff             	cmp    eax,0xffffffff
 80488bf:	74 13                	je     80488d4 <__do_global_ctors_aux+0x24>
 80488c1:	bb 64 9b 04 08       	mov    ebx,0x8049b64
 80488c6:	66 90                	xchg   ax,ax
 80488c8:	83 eb 04             	sub    ebx,0x4
 80488cb:	ff d0                	call   eax
 80488cd:	8b 03                	mov    eax,DWORD PTR [ebx]
 80488cf:	83 f8 ff             	cmp    eax,0xffffffff
 80488d2:	75 f4                	jne    80488c8 <__do_global_ctors_aux+0x18>
 80488d4:	83 c4 04             	add    esp,0x4
 80488d7:	5b                   	pop    ebx
 80488d8:	5d                   	pop    ebp
 80488d9:	c3                   	ret    

Disassembly of section .fini:

080488dc <_fini>:
 80488dc:	53                   	push   ebx
 80488dd:	83 ec 08             	sub    esp,0x8
 80488e0:	e8 db fb ff ff       	call   80484c0 <__x86.get_pc_thunk.bx>
 80488e5:	81 c3 67 13 00 00    	add    ebx,0x1367
 80488eb:	e8 e0 fb ff ff       	call   80484d0 <__do_global_dtors_aux>
 80488f0:	83 c4 08             	add    esp,0x8
 80488f3:	5b                   	pop    ebx
 80488f4:	c3                   	ret    
